
atorr048_stran050_lab9_part3.elf:     file format elf32-avr

Sections:
Idx Name          Size      VMA       LMA       File off  Algn
  0 .data         00000144  00800100  00000762  000007f6  2**0
                  CONTENTS, ALLOC, LOAD, DATA
  1 .text         00000762  00000000  00000000  00000094  2**1
                  CONTENTS, ALLOC, LOAD, READONLY, CODE
  2 .bss          0000000c  00800244  00800244  0000093a  2**0
                  ALLOC
  3 .comment      00000030  00000000  00000000  0000093a  2**0
                  CONTENTS, READONLY
  4 .note.gnu.avr.deviceinfo 00000040  00000000  00000000  0000096c  2**2
                  CONTENTS, READONLY
  5 .debug_aranges 00000040  00000000  00000000  000009ac  2**0
                  CONTENTS, READONLY, DEBUGGING
  6 .debug_info   0000097e  00000000  00000000  000009ec  2**0
                  CONTENTS, READONLY, DEBUGGING
  7 .debug_abbrev 0000082e  00000000  00000000  0000136a  2**0
                  CONTENTS, READONLY, DEBUGGING
  8 .debug_line   000003ec  00000000  00000000  00001b98  2**0
                  CONTENTS, READONLY, DEBUGGING
  9 .debug_frame  000000c0  00000000  00000000  00001f84  2**2
                  CONTENTS, READONLY, DEBUGGING
 10 .debug_str    000004a4  00000000  00000000  00002044  2**0
                  CONTENTS, READONLY, DEBUGGING
 11 .debug_loc    0000014e  00000000  00000000  000024e8  2**0
                  CONTENTS, READONLY, DEBUGGING
 12 .debug_ranges 00000030  00000000  00000000  00002636  2**0
                  CONTENTS, READONLY, DEBUGGING

Disassembly of section .text:

00000000 <__vectors>:
   0:	45 c0       	rjmp	.+138    	; 0x8c <__ctors_end>
   2:	00 00       	nop
   4:	60 c0       	rjmp	.+192    	; 0xc6 <__bad_interrupt>
   6:	00 00       	nop
   8:	5e c0       	rjmp	.+188    	; 0xc6 <__bad_interrupt>
   a:	00 00       	nop
   c:	5c c0       	rjmp	.+184    	; 0xc6 <__bad_interrupt>
   e:	00 00       	nop
  10:	5a c0       	rjmp	.+180    	; 0xc6 <__bad_interrupt>
  12:	00 00       	nop
  14:	58 c0       	rjmp	.+176    	; 0xc6 <__bad_interrupt>
  16:	00 00       	nop
  18:	56 c0       	rjmp	.+172    	; 0xc6 <__bad_interrupt>
  1a:	00 00       	nop
  1c:	54 c0       	rjmp	.+168    	; 0xc6 <__bad_interrupt>
  1e:	00 00       	nop
  20:	52 c0       	rjmp	.+164    	; 0xc6 <__bad_interrupt>
  22:	00 00       	nop
  24:	50 c0       	rjmp	.+160    	; 0xc6 <__bad_interrupt>
  26:	00 00       	nop
  28:	4e c0       	rjmp	.+156    	; 0xc6 <__bad_interrupt>
  2a:	00 00       	nop
  2c:	4c c0       	rjmp	.+152    	; 0xc6 <__bad_interrupt>
  2e:	00 00       	nop
  30:	4a c0       	rjmp	.+148    	; 0xc6 <__bad_interrupt>
  32:	00 00       	nop
  34:	48 c0       	rjmp	.+144    	; 0xc6 <__bad_interrupt>
  36:	00 00       	nop
  38:	46 c0       	rjmp	.+140    	; 0xc6 <__bad_interrupt>
  3a:	00 00       	nop
  3c:	44 c0       	rjmp	.+136    	; 0xc6 <__bad_interrupt>
  3e:	00 00       	nop
  40:	42 c0       	rjmp	.+132    	; 0xc6 <__bad_interrupt>
  42:	00 00       	nop
  44:	40 c0       	rjmp	.+128    	; 0xc6 <__bad_interrupt>
  46:	00 00       	nop
  48:	3e c0       	rjmp	.+124    	; 0xc6 <__bad_interrupt>
  4a:	00 00       	nop
  4c:	3c c0       	rjmp	.+120    	; 0xc6 <__bad_interrupt>
  4e:	00 00       	nop
  50:	3a c0       	rjmp	.+116    	; 0xc6 <__bad_interrupt>
  52:	00 00       	nop
  54:	38 c0       	rjmp	.+112    	; 0xc6 <__bad_interrupt>
  56:	00 00       	nop
  58:	36 c0       	rjmp	.+108    	; 0xc6 <__bad_interrupt>
  5a:	00 00       	nop
  5c:	34 c0       	rjmp	.+104    	; 0xc6 <__bad_interrupt>
  5e:	00 00       	nop
  60:	32 c0       	rjmp	.+100    	; 0xc6 <__bad_interrupt>
  62:	00 00       	nop
  64:	30 c0       	rjmp	.+96     	; 0xc6 <__bad_interrupt>
  66:	00 00       	nop
  68:	2e c0       	rjmp	.+92     	; 0xc6 <__bad_interrupt>
  6a:	00 00       	nop
  6c:	2c c0       	rjmp	.+88     	; 0xc6 <__bad_interrupt>
  6e:	00 00       	nop
  70:	2a c0       	rjmp	.+84     	; 0xc6 <__bad_interrupt>
  72:	00 00       	nop
  74:	28 c0       	rjmp	.+80     	; 0xc6 <__bad_interrupt>
  76:	00 00       	nop
  78:	26 c0       	rjmp	.+76     	; 0xc6 <__bad_interrupt>
  7a:	00 00       	nop
  7c:	24 c0       	rjmp	.+72     	; 0xc6 <__bad_interrupt>
  7e:	00 00       	nop
  80:	22 c0       	rjmp	.+68     	; 0xc6 <__bad_interrupt>
  82:	00 00       	nop
  84:	20 c0       	rjmp	.+64     	; 0xc6 <__bad_interrupt>
  86:	00 00       	nop
  88:	1e c0       	rjmp	.+60     	; 0xc6 <__bad_interrupt>
	...

0000008c <__ctors_end>:
  8c:	11 24       	eor	r1, r1
  8e:	1f be       	out	0x3f, r1	; 63
  90:	cf ef       	ldi	r28, 0xFF	; 255
  92:	d0 e4       	ldi	r29, 0x40	; 64
  94:	de bf       	out	0x3e, r29	; 62
  96:	cd bf       	out	0x3d, r28	; 61

00000098 <__do_copy_data>:
  98:	12 e0       	ldi	r17, 0x02	; 2
  9a:	a0 e0       	ldi	r26, 0x00	; 0
  9c:	b1 e0       	ldi	r27, 0x01	; 1
  9e:	e2 e6       	ldi	r30, 0x62	; 98
  a0:	f7 e0       	ldi	r31, 0x07	; 7
  a2:	00 e0       	ldi	r16, 0x00	; 0
  a4:	0b bf       	out	0x3b, r16	; 59
  a6:	02 c0       	rjmp	.+4      	; 0xac <__do_copy_data+0x14>
  a8:	07 90       	elpm	r0, Z+
  aa:	0d 92       	st	X+, r0
  ac:	a4 34       	cpi	r26, 0x44	; 68
  ae:	b1 07       	cpc	r27, r17
  b0:	d9 f7       	brne	.-10     	; 0xa8 <__do_copy_data+0x10>

000000b2 <__do_clear_bss>:
  b2:	22 e0       	ldi	r18, 0x02	; 2
  b4:	a4 e4       	ldi	r26, 0x44	; 68
  b6:	b2 e0       	ldi	r27, 0x02	; 2
  b8:	01 c0       	rjmp	.+2      	; 0xbc <.do_clear_bss_start>

000000ba <.do_clear_bss_loop>:
  ba:	1d 92       	st	X+, r1

000000bc <.do_clear_bss_start>:
  bc:	a0 35       	cpi	r26, 0x50	; 80
  be:	b2 07       	cpc	r27, r18
  c0:	e1 f7       	brne	.-8      	; 0xba <.do_clear_bss_loop>
  c2:	84 d1       	rcall	.+776    	; 0x3cc <main>
  c4:	4c c3       	rjmp	.+1688   	; 0x75e <_exit>

000000c6 <__bad_interrupt>:
  c6:	9c cf       	rjmp	.-200    	; 0x0 <__vectors>

000000c8 <set_PWM>:
	set_PWM(0);
}	  
void PWM_off() {
	TCCR0A = 0x00;
	TCCR0B = 0x00;
}
  c8:	0f 93       	push	r16
  ca:	1f 93       	push	r17
  cc:	cf 93       	push	r28
  ce:	df 93       	push	r29
  d0:	00 d0       	rcall	.+0      	; 0xd2 <set_PWM+0xa>
  d2:	00 d0       	rcall	.+0      	; 0xd4 <set_PWM+0xc>
  d4:	cd b7       	in	r28, 0x3d	; 61
  d6:	de b7       	in	r29, 0x3e	; 62
  d8:	69 83       	std	Y+1, r22	; 0x01
  da:	7a 83       	std	Y+2, r23	; 0x02
  dc:	8b 83       	std	Y+3, r24	; 0x03
  de:	9c 83       	std	Y+4, r25	; 0x04
  e0:	80 91 48 02 	lds	r24, 0x0248	; 0x800248 <current_frequency.1617>
  e4:	90 91 49 02 	lds	r25, 0x0249	; 0x800249 <current_frequency.1617+0x1>
  e8:	a0 91 4a 02 	lds	r26, 0x024A	; 0x80024a <current_frequency.1617+0x2>
  ec:	b0 91 4b 02 	lds	r27, 0x024B	; 0x80024b <current_frequency.1617+0x3>
  f0:	9c 01       	movw	r18, r24
  f2:	ad 01       	movw	r20, r26
  f4:	69 81       	ldd	r22, Y+1	; 0x01
  f6:	7a 81       	ldd	r23, Y+2	; 0x02
  f8:	8b 81       	ldd	r24, Y+3	; 0x03
  fa:	9c 81       	ldd	r25, Y+4	; 0x04
  fc:	b7 d1       	rcall	.+878    	; 0x46c <__cmpsf2>
  fe:	88 23       	and	r24, r24
 100:	09 f4       	brne	.+2      	; 0x104 <set_PWM+0x3c>
 102:	6c c0       	rjmp	.+216    	; 0x1dc <set_PWM+0x114>
 104:	20 e0       	ldi	r18, 0x00	; 0
 106:	30 e0       	ldi	r19, 0x00	; 0
 108:	a9 01       	movw	r20, r18
 10a:	69 81       	ldd	r22, Y+1	; 0x01
 10c:	7a 81       	ldd	r23, Y+2	; 0x02
 10e:	8b 81       	ldd	r24, Y+3	; 0x03
 110:	9c 81       	ldd	r25, Y+4	; 0x04
 112:	ac d1       	rcall	.+856    	; 0x46c <__cmpsf2>
 114:	88 23       	and	r24, r24
 116:	51 f4       	brne	.+20     	; 0x12c <set_PWM+0x64>
 118:	85 e4       	ldi	r24, 0x45	; 69
 11a:	90 e0       	ldi	r25, 0x00	; 0
 11c:	25 e4       	ldi	r18, 0x45	; 69
 11e:	30 e0       	ldi	r19, 0x00	; 0
 120:	f9 01       	movw	r30, r18
 122:	20 81       	ld	r18, Z
 124:	28 70       	andi	r18, 0x08	; 8
 126:	fc 01       	movw	r30, r24
 128:	20 83       	st	Z, r18
 12a:	09 c0       	rjmp	.+18     	; 0x13e <set_PWM+0x76>
 12c:	85 e4       	ldi	r24, 0x45	; 69
 12e:	90 e0       	ldi	r25, 0x00	; 0
 130:	25 e4       	ldi	r18, 0x45	; 69
 132:	30 e0       	ldi	r19, 0x00	; 0
 134:	f9 01       	movw	r30, r18
 136:	20 81       	ld	r18, Z
 138:	23 60       	ori	r18, 0x03	; 3
 13a:	fc 01       	movw	r30, r24
 13c:	20 83       	st	Z, r18
 13e:	28 e5       	ldi	r18, 0x58	; 88
 140:	39 e3       	ldi	r19, 0x39	; 57
 142:	44 e7       	ldi	r20, 0x74	; 116
 144:	5f e3       	ldi	r21, 0x3F	; 63
 146:	69 81       	ldd	r22, Y+1	; 0x01
 148:	7a 81       	ldd	r23, Y+2	; 0x02
 14a:	8b 81       	ldd	r24, Y+3	; 0x03
 14c:	9c 81       	ldd	r25, Y+4	; 0x04
 14e:	8e d1       	rcall	.+796    	; 0x46c <__cmpsf2>
 150:	88 23       	and	r24, r24
 152:	34 f4       	brge	.+12     	; 0x160 <set_PWM+0x98>
 154:	87 e4       	ldi	r24, 0x47	; 71
 156:	90 e0       	ldi	r25, 0x00	; 0
 158:	2f ef       	ldi	r18, 0xFF	; 255
 15a:	fc 01       	movw	r30, r24
 15c:	20 83       	st	Z, r18
 15e:	2e c0       	rjmp	.+92     	; 0x1bc <set_PWM+0xf4>
 160:	20 e0       	ldi	r18, 0x00	; 0
 162:	34 e2       	ldi	r19, 0x24	; 36
 164:	44 ef       	ldi	r20, 0xF4	; 244
 166:	56 e4       	ldi	r21, 0x46	; 70
 168:	69 81       	ldd	r22, Y+1	; 0x01
 16a:	7a 81       	ldd	r23, Y+2	; 0x02
 16c:	8b 81       	ldd	r24, Y+3	; 0x03
 16e:	9c 81       	ldd	r25, Y+4	; 0x04
 170:	8f d2       	rcall	.+1310   	; 0x690 <__gesf2>
 172:	18 16       	cp	r1, r24
 174:	2c f4       	brge	.+10     	; 0x180 <set_PWM+0xb8>
 176:	87 e4       	ldi	r24, 0x47	; 71
 178:	90 e0       	ldi	r25, 0x00	; 0
 17a:	fc 01       	movw	r30, r24
 17c:	10 82       	st	Z, r1
 17e:	1e c0       	rjmp	.+60     	; 0x1bc <set_PWM+0xf4>
 180:	07 e4       	ldi	r16, 0x47	; 71
 182:	10 e0       	ldi	r17, 0x00	; 0
 184:	20 e0       	ldi	r18, 0x00	; 0
 186:	30 e0       	ldi	r19, 0x00	; 0
 188:	40 e0       	ldi	r20, 0x00	; 0
 18a:	53 e4       	ldi	r21, 0x43	; 67
 18c:	69 81       	ldd	r22, Y+1	; 0x01
 18e:	7a 81       	ldd	r23, Y+2	; 0x02
 190:	8b 81       	ldd	r24, Y+3	; 0x03
 192:	9c 81       	ldd	r25, Y+4	; 0x04
 194:	81 d2       	rcall	.+1282   	; 0x698 <__mulsf3>
 196:	dc 01       	movw	r26, r24
 198:	cb 01       	movw	r24, r22
 19a:	9c 01       	movw	r18, r24
 19c:	ad 01       	movw	r20, r26
 19e:	60 e0       	ldi	r22, 0x00	; 0
 1a0:	74 e2       	ldi	r23, 0x24	; 36
 1a2:	84 ef       	ldi	r24, 0xF4	; 244
 1a4:	9a e4       	ldi	r25, 0x4A	; 74
 1a6:	66 d1       	rcall	.+716    	; 0x474 <__divsf3>
 1a8:	dc 01       	movw	r26, r24
 1aa:	cb 01       	movw	r24, r22
 1ac:	bc 01       	movw	r22, r24
 1ae:	cd 01       	movw	r24, r26
 1b0:	c9 d1       	rcall	.+914    	; 0x544 <__fixsfsi>
 1b2:	dc 01       	movw	r26, r24
 1b4:	cb 01       	movw	r24, r22
 1b6:	81 50       	subi	r24, 0x01	; 1
 1b8:	f8 01       	movw	r30, r16
 1ba:	80 83       	st	Z, r24
 1bc:	86 e4       	ldi	r24, 0x46	; 70
 1be:	90 e0       	ldi	r25, 0x00	; 0
 1c0:	fc 01       	movw	r30, r24
 1c2:	10 82       	st	Z, r1
 1c4:	89 81       	ldd	r24, Y+1	; 0x01
 1c6:	9a 81       	ldd	r25, Y+2	; 0x02
 1c8:	ab 81       	ldd	r26, Y+3	; 0x03
 1ca:	bc 81       	ldd	r27, Y+4	; 0x04
 1cc:	80 93 48 02 	sts	0x0248, r24	; 0x800248 <current_frequency.1617>
 1d0:	90 93 49 02 	sts	0x0249, r25	; 0x800249 <current_frequency.1617+0x1>
 1d4:	a0 93 4a 02 	sts	0x024A, r26	; 0x80024a <current_frequency.1617+0x2>
 1d8:	b0 93 4b 02 	sts	0x024B, r27	; 0x80024b <current_frequency.1617+0x3>
 1dc:	00 00       	nop
 1de:	0f 90       	pop	r0
 1e0:	0f 90       	pop	r0
 1e2:	0f 90       	pop	r0
 1e4:	0f 90       	pop	r0
 1e6:	df 91       	pop	r29
 1e8:	cf 91       	pop	r28
 1ea:	1f 91       	pop	r17
 1ec:	0f 91       	pop	r16
 1ee:	08 95       	ret

000001f0 <PWM_on>:
 1f0:	cf 93       	push	r28
 1f2:	df 93       	push	r29
 1f4:	cd b7       	in	r28, 0x3d	; 61
 1f6:	de b7       	in	r29, 0x3e	; 62
 1f8:	84 e4       	ldi	r24, 0x44	; 68
 1fa:	90 e0       	ldi	r25, 0x00	; 0
 1fc:	21 e4       	ldi	r18, 0x41	; 65
 1fe:	fc 01       	movw	r30, r24
 200:	20 83       	st	Z, r18
 202:	85 e4       	ldi	r24, 0x45	; 69
 204:	90 e0       	ldi	r25, 0x00	; 0
 206:	2b e0       	ldi	r18, 0x0B	; 11
 208:	fc 01       	movw	r30, r24
 20a:	20 83       	st	Z, r18
 20c:	60 e0       	ldi	r22, 0x00	; 0
 20e:	70 e0       	ldi	r23, 0x00	; 0
 210:	cb 01       	movw	r24, r22
 212:	5a df       	rcall	.-332    	; 0xc8 <set_PWM>
 214:	00 00       	nop
 216:	df 91       	pop	r29
 218:	cf 91       	pop	r28
 21a:	08 95       	ret

0000021c <Tick>:

void Tick() {
 21c:	cf 93       	push	r28
 21e:	df 93       	push	r29
 220:	cd b7       	in	r28, 0x3d	; 61
 222:	de b7       	in	r29, 0x3e	; 62
	switch (state) {
 224:	80 91 4c 02 	lds	r24, 0x024C	; 0x80024c <state>
 228:	90 91 4d 02 	lds	r25, 0x024D	; 0x80024d <state+0x1>
 22c:	81 30       	cpi	r24, 0x01	; 1
 22e:	91 05       	cpc	r25, r1
 230:	89 f0       	breq	.+34     	; 0x254 <Tick+0x38>
 232:	81 30       	cpi	r24, 0x01	; 1
 234:	91 05       	cpc	r25, r1
 236:	38 f0       	brcs	.+14     	; 0x246 <Tick+0x2a>
 238:	82 30       	cpi	r24, 0x02	; 2
 23a:	91 05       	cpc	r25, r1
 23c:	c9 f0       	breq	.+50     	; 0x270 <Tick+0x54>
 23e:	03 97       	sbiw	r24, 0x03	; 3
 240:	09 f4       	brne	.+2      	; 0x244 <Tick+0x28>
 242:	58 c0       	rjmp	.+176    	; 0x2f4 <Tick+0xd8>
				state = Play;
				i = 0;
				note++;
			}
			break;
		default: break;
 244:	7d c0       	rjmp	.+250    	; 0x340 <Tick+0x124>
	TCCR0B = 0x00;
}

void Tick() {
	switch (state) {
		case Start: state = Idle; break;
 246:	81 e0       	ldi	r24, 0x01	; 1
 248:	90 e0       	ldi	r25, 0x00	; 0
 24a:	90 93 4d 02 	sts	0x024D, r25	; 0x80024d <state+0x1>
 24e:	80 93 4c 02 	sts	0x024C, r24	; 0x80024c <state>
 252:	76 c0       	rjmp	.+236    	; 0x340 <Tick+0x124>
		case Idle: state = (tmpA == 0x01) ? Play : Idle; break;
 254:	80 91 44 02 	lds	r24, 0x0244	; 0x800244 <__data_end>
 258:	81 30       	cpi	r24, 0x01	; 1
 25a:	19 f4       	brne	.+6      	; 0x262 <Tick+0x46>
 25c:	82 e0       	ldi	r24, 0x02	; 2
 25e:	90 e0       	ldi	r25, 0x00	; 0
 260:	02 c0       	rjmp	.+4      	; 0x266 <Tick+0x4a>
 262:	81 e0       	ldi	r24, 0x01	; 1
 264:	90 e0       	ldi	r25, 0x00	; 0
 266:	90 93 4d 02 	sts	0x024D, r25	; 0x80024d <state+0x1>
 26a:	80 93 4c 02 	sts	0x024C, r24	; 0x80024c <state>
 26e:	68 c0       	rjmp	.+208    	; 0x340 <Tick+0x124>
		case Play: 
			if (notes[note] == 0) {
 270:	80 91 45 02 	lds	r24, 0x0245	; 0x800245 <note>
 274:	88 2f       	mov	r24, r24
 276:	90 e0       	ldi	r25, 0x00	; 0
 278:	88 0f       	add	r24, r24
 27a:	99 1f       	adc	r25, r25
 27c:	88 0f       	add	r24, r24
 27e:	99 1f       	adc	r25, r25
 280:	80 50       	subi	r24, 0x00	; 0
 282:	9f 4f       	sbci	r25, 0xFF	; 255
 284:	fc 01       	movw	r30, r24
 286:	80 81       	ld	r24, Z
 288:	91 81       	ldd	r25, Z+1	; 0x01
 28a:	a2 81       	ldd	r26, Z+2	; 0x02
 28c:	b3 81       	ldd	r27, Z+3	; 0x03
 28e:	20 e0       	ldi	r18, 0x00	; 0
 290:	30 e0       	ldi	r19, 0x00	; 0
 292:	a9 01       	movw	r20, r18
 294:	bc 01       	movw	r22, r24
 296:	cd 01       	movw	r24, r26
 298:	e9 d0       	rcall	.+466    	; 0x46c <__cmpsf2>
 29a:	88 23       	and	r24, r24
 29c:	69 f4       	brne	.+26     	; 0x2b8 <Tick+0x9c>
				state = Idle;
 29e:	81 e0       	ldi	r24, 0x01	; 1
 2a0:	90 e0       	ldi	r25, 0x00	; 0
 2a2:	90 93 4d 02 	sts	0x024D, r25	; 0x80024d <state+0x1>
 2a6:	80 93 4c 02 	sts	0x024C, r24	; 0x80024c <state>
				i = 0; note = 0;
 2aa:	10 92 47 02 	sts	0x0247, r1	; 0x800247 <i+0x1>
 2ae:	10 92 46 02 	sts	0x0246, r1	; 0x800246 <i>
 2b2:	10 92 45 02 	sts	0x0245, r1	; 0x800245 <note>
			}
			else if (i >= time_hold[note]) {
				state = Rest;
				i = 0;
			}
			break;
 2b6:	41 c0       	rjmp	.+130    	; 0x33a <Tick+0x11e>
		case Play: 
			if (notes[note] == 0) {
				state = Idle;
				i = 0; note = 0;
			}
			else if (i >= time_hold[note]) {
 2b8:	80 91 45 02 	lds	r24, 0x0245	; 0x800245 <note>
 2bc:	88 2f       	mov	r24, r24
 2be:	90 e0       	ldi	r25, 0x00	; 0
 2c0:	88 0f       	add	r24, r24
 2c2:	99 1f       	adc	r25, r25
 2c4:	8c 55       	subi	r24, 0x5C	; 92
 2c6:	9e 4f       	sbci	r25, 0xFE	; 254
 2c8:	fc 01       	movw	r30, r24
 2ca:	80 81       	ld	r24, Z
 2cc:	91 81       	ldd	r25, Z+1	; 0x01
 2ce:	9c 01       	movw	r18, r24
 2d0:	80 91 46 02 	lds	r24, 0x0246	; 0x800246 <i>
 2d4:	90 91 47 02 	lds	r25, 0x0247	; 0x800247 <i+0x1>
 2d8:	82 17       	cp	r24, r18
 2da:	93 07       	cpc	r25, r19
 2dc:	70 f1       	brcs	.+92     	; 0x33a <Tick+0x11e>
				state = Rest;
 2de:	83 e0       	ldi	r24, 0x03	; 3
 2e0:	90 e0       	ldi	r25, 0x00	; 0
 2e2:	90 93 4d 02 	sts	0x024D, r25	; 0x80024d <state+0x1>
 2e6:	80 93 4c 02 	sts	0x024C, r24	; 0x80024c <state>
				i = 0;
 2ea:	10 92 47 02 	sts	0x0247, r1	; 0x800247 <i+0x1>
 2ee:	10 92 46 02 	sts	0x0246, r1	; 0x800246 <i>
			}
			break;
 2f2:	23 c0       	rjmp	.+70     	; 0x33a <Tick+0x11e>
		case Rest:
			if (i >= in_between[note]) {
 2f4:	80 91 45 02 	lds	r24, 0x0245	; 0x800245 <note>
 2f8:	88 2f       	mov	r24, r24
 2fa:	90 e0       	ldi	r25, 0x00	; 0
 2fc:	88 0f       	add	r24, r24
 2fe:	99 1f       	adc	r25, r25
 300:	8c 50       	subi	r24, 0x0C	; 12
 302:	9e 4f       	sbci	r25, 0xFE	; 254
 304:	fc 01       	movw	r30, r24
 306:	80 81       	ld	r24, Z
 308:	91 81       	ldd	r25, Z+1	; 0x01
 30a:	9c 01       	movw	r18, r24
 30c:	80 91 46 02 	lds	r24, 0x0246	; 0x800246 <i>
 310:	90 91 47 02 	lds	r25, 0x0247	; 0x800247 <i+0x1>
 314:	82 17       	cp	r24, r18
 316:	93 07       	cpc	r25, r19
 318:	90 f0       	brcs	.+36     	; 0x33e <Tick+0x122>
				state = Play;
 31a:	82 e0       	ldi	r24, 0x02	; 2
 31c:	90 e0       	ldi	r25, 0x00	; 0
 31e:	90 93 4d 02 	sts	0x024D, r25	; 0x80024d <state+0x1>
 322:	80 93 4c 02 	sts	0x024C, r24	; 0x80024c <state>
				i = 0;
 326:	10 92 47 02 	sts	0x0247, r1	; 0x800247 <i+0x1>
 32a:	10 92 46 02 	sts	0x0246, r1	; 0x800246 <i>
				note++;
 32e:	80 91 45 02 	lds	r24, 0x0245	; 0x800245 <note>
 332:	8f 5f       	subi	r24, 0xFF	; 255
 334:	80 93 45 02 	sts	0x0245, r24	; 0x800245 <note>
			}
			break;
 338:	02 c0       	rjmp	.+4      	; 0x33e <Tick+0x122>
			}
			else if (i >= time_hold[note]) {
				state = Rest;
				i = 0;
			}
			break;
 33a:	00 00       	nop
 33c:	01 c0       	rjmp	.+2      	; 0x340 <Tick+0x124>
			if (i >= in_between[note]) {
				state = Play;
				i = 0;
				note++;
			}
			break;
 33e:	00 00       	nop
		default: break;
	}
	switch (state) {
 340:	80 91 4c 02 	lds	r24, 0x024C	; 0x80024c <state>
 344:	90 91 4d 02 	lds	r25, 0x024D	; 0x80024d <state+0x1>
 348:	81 30       	cpi	r24, 0x01	; 1
 34a:	91 05       	cpc	r25, r1
 34c:	49 f0       	breq	.+18     	; 0x360 <Tick+0x144>
 34e:	81 30       	cpi	r24, 0x01	; 1
 350:	91 05       	cpc	r25, r1
 352:	b8 f1       	brcs	.+110    	; 0x3c2 <Tick+0x1a6>
 354:	82 30       	cpi	r24, 0x02	; 2
 356:	91 05       	cpc	r25, r1
 358:	51 f0       	breq	.+20     	; 0x36e <Tick+0x152>
 35a:	03 97       	sbiw	r24, 0x03	; 3
 35c:	21 f1       	breq	.+72     	; 0x3a6 <Tick+0x18a>
			break;
		case Rest:
			set_PWM(0);
			i++;
			break;	
		default: break;
 35e:	32 c0       	rjmp	.+100    	; 0x3c4 <Tick+0x1a8>
			break;
		default: break;
	}
	switch (state) {
		case Start: break;
		case Idle: i = 0; note = 0; break;
 360:	10 92 47 02 	sts	0x0247, r1	; 0x800247 <i+0x1>
 364:	10 92 46 02 	sts	0x0246, r1	; 0x800246 <i>
 368:	10 92 45 02 	sts	0x0245, r1	; 0x800245 <note>
 36c:	2b c0       	rjmp	.+86     	; 0x3c4 <Tick+0x1a8>
		case Play:
			set_PWM(notes[note]);
 36e:	80 91 45 02 	lds	r24, 0x0245	; 0x800245 <note>
 372:	88 2f       	mov	r24, r24
 374:	90 e0       	ldi	r25, 0x00	; 0
 376:	88 0f       	add	r24, r24
 378:	99 1f       	adc	r25, r25
 37a:	88 0f       	add	r24, r24
 37c:	99 1f       	adc	r25, r25
 37e:	80 50       	subi	r24, 0x00	; 0
 380:	9f 4f       	sbci	r25, 0xFF	; 255
 382:	fc 01       	movw	r30, r24
 384:	80 81       	ld	r24, Z
 386:	91 81       	ldd	r25, Z+1	; 0x01
 388:	a2 81       	ldd	r26, Z+2	; 0x02
 38a:	b3 81       	ldd	r27, Z+3	; 0x03
 38c:	bc 01       	movw	r22, r24
 38e:	cd 01       	movw	r24, r26
 390:	9b de       	rcall	.-714    	; 0xc8 <set_PWM>
			i++;
 392:	80 91 46 02 	lds	r24, 0x0246	; 0x800246 <i>
 396:	90 91 47 02 	lds	r25, 0x0247	; 0x800247 <i+0x1>
 39a:	01 96       	adiw	r24, 0x01	; 1
 39c:	90 93 47 02 	sts	0x0247, r25	; 0x800247 <i+0x1>
 3a0:	80 93 46 02 	sts	0x0246, r24	; 0x800246 <i>
			break;
 3a4:	0f c0       	rjmp	.+30     	; 0x3c4 <Tick+0x1a8>
		case Rest:
			set_PWM(0);
 3a6:	60 e0       	ldi	r22, 0x00	; 0
 3a8:	70 e0       	ldi	r23, 0x00	; 0
 3aa:	cb 01       	movw	r24, r22
 3ac:	8d de       	rcall	.-742    	; 0xc8 <set_PWM>
			i++;
 3ae:	80 91 46 02 	lds	r24, 0x0246	; 0x800246 <i>
 3b2:	90 91 47 02 	lds	r25, 0x0247	; 0x800247 <i+0x1>
 3b6:	01 96       	adiw	r24, 0x01	; 1
 3b8:	90 93 47 02 	sts	0x0247, r25	; 0x800247 <i+0x1>
 3bc:	80 93 46 02 	sts	0x0246, r24	; 0x800246 <i>
			break;	
 3c0:	01 c0       	rjmp	.+2      	; 0x3c4 <Tick+0x1a8>
			}
			break;
		default: break;
	}
	switch (state) {
		case Start: break;
 3c2:	00 00       	nop
			set_PWM(0);
			i++;
			break;	
		default: break;
	}
}
 3c4:	00 00       	nop
 3c6:	df 91       	pop	r29
 3c8:	cf 91       	pop	r28
 3ca:	08 95       	ret

000003cc <main>:

int main(void) {
 3cc:	cf 93       	push	r28
 3ce:	df 93       	push	r29
 3d0:	cd b7       	in	r28, 0x3d	; 61
 3d2:	de b7       	in	r29, 0x3e	; 62
	DDRA = 0x00; PORTA = 0xFF;
 3d4:	81 e2       	ldi	r24, 0x21	; 33
 3d6:	90 e0       	ldi	r25, 0x00	; 0
 3d8:	fc 01       	movw	r30, r24
 3da:	10 82       	st	Z, r1
 3dc:	82 e2       	ldi	r24, 0x22	; 34
 3de:	90 e0       	ldi	r25, 0x00	; 0
 3e0:	2f ef       	ldi	r18, 0xFF	; 255
 3e2:	fc 01       	movw	r30, r24
 3e4:	20 83       	st	Z, r18
    DDRB = 0x08; PORTB = 0x00;
 3e6:	84 e2       	ldi	r24, 0x24	; 36
 3e8:	90 e0       	ldi	r25, 0x00	; 0
 3ea:	28 e0       	ldi	r18, 0x08	; 8
 3ec:	fc 01       	movw	r30, r24
 3ee:	20 83       	st	Z, r18
 3f0:	85 e2       	ldi	r24, 0x25	; 37
 3f2:	90 e0       	ldi	r25, 0x00	; 0
 3f4:	fc 01       	movw	r30, r24
 3f6:	10 82       	st	Z, r1
	PWM_on();
 3f8:	fb de       	rcall	.-522    	; 0x1f0 <PWM_on>
	while (notes[note] != 0) {
 3fa:	0e c0       	rjmp	.+28     	; 0x418 <__LOCK_REGION_LENGTH__+0x18>
		note_size++;
 3fc:	80 91 4e 02 	lds	r24, 0x024E	; 0x80024e <note_size>
 400:	90 91 4f 02 	lds	r25, 0x024F	; 0x80024f <note_size+0x1>
 404:	01 96       	adiw	r24, 0x01	; 1
 406:	90 93 4f 02 	sts	0x024F, r25	; 0x80024f <note_size+0x1>
 40a:	80 93 4e 02 	sts	0x024E, r24	; 0x80024e <note_size>
		note++;
 40e:	80 91 45 02 	lds	r24, 0x0245	; 0x800245 <note>
 412:	8f 5f       	subi	r24, 0xFF	; 255
 414:	80 93 45 02 	sts	0x0245, r24	; 0x800245 <note>

int main(void) {
	DDRA = 0x00; PORTA = 0xFF;
    DDRB = 0x08; PORTB = 0x00;
	PWM_on();
	while (notes[note] != 0) {
 418:	80 91 45 02 	lds	r24, 0x0245	; 0x800245 <note>
 41c:	88 2f       	mov	r24, r24
 41e:	90 e0       	ldi	r25, 0x00	; 0
 420:	88 0f       	add	r24, r24
 422:	99 1f       	adc	r25, r25
 424:	88 0f       	add	r24, r24
 426:	99 1f       	adc	r25, r25
 428:	80 50       	subi	r24, 0x00	; 0
 42a:	9f 4f       	sbci	r25, 0xFF	; 255
 42c:	fc 01       	movw	r30, r24
 42e:	80 81       	ld	r24, Z
 430:	91 81       	ldd	r25, Z+1	; 0x01
 432:	a2 81       	ldd	r26, Z+2	; 0x02
 434:	b3 81       	ldd	r27, Z+3	; 0x03
 436:	20 e0       	ldi	r18, 0x00	; 0
 438:	30 e0       	ldi	r19, 0x00	; 0
 43a:	a9 01       	movw	r20, r18
 43c:	bc 01       	movw	r22, r24
 43e:	cd 01       	movw	r24, r26
 440:	15 d0       	rcall	.+42     	; 0x46c <__cmpsf2>
 442:	88 23       	and	r24, r24
 444:	d9 f6       	brne	.-74     	; 0x3fc <main+0x30>
		note_size++;
		note++;
	}
	note = 0;
 446:	10 92 45 02 	sts	0x0245, r1	; 0x800245 <note>
    while (1) {
		tmpA = ~PINA & 0x01;
 44a:	80 e2       	ldi	r24, 0x20	; 32
 44c:	90 e0       	ldi	r25, 0x00	; 0
 44e:	fc 01       	movw	r30, r24
 450:	80 81       	ld	r24, Z
 452:	88 2f       	mov	r24, r24
 454:	90 e0       	ldi	r25, 0x00	; 0
 456:	81 70       	andi	r24, 0x01	; 1
 458:	99 27       	eor	r25, r25
 45a:	21 e0       	ldi	r18, 0x01	; 1
 45c:	89 2b       	or	r24, r25
 45e:	09 f0       	breq	.+2      	; 0x462 <__LOCK_REGION_LENGTH__+0x62>
 460:	20 e0       	ldi	r18, 0x00	; 0
 462:	82 2f       	mov	r24, r18
 464:	80 93 44 02 	sts	0x0244, r24	; 0x800244 <__data_end>
		Tick();
 468:	d9 de       	rcall	.-590    	; 0x21c <Tick>
		
    }
 46a:	ef cf       	rjmp	.-34     	; 0x44a <__LOCK_REGION_LENGTH__+0x4a>

0000046c <__cmpsf2>:
 46c:	9c d0       	rcall	.+312    	; 0x5a6 <__fp_cmp>
 46e:	08 f4       	brcc	.+2      	; 0x472 <__cmpsf2+0x6>
 470:	81 e0       	ldi	r24, 0x01	; 1
 472:	08 95       	ret

00000474 <__divsf3>:
 474:	0c d0       	rcall	.+24     	; 0x48e <__divsf3x>
 476:	d2 c0       	rjmp	.+420    	; 0x61c <__fp_round>
 478:	ca d0       	rcall	.+404    	; 0x60e <__fp_pscB>
 47a:	40 f0       	brcs	.+16     	; 0x48c <__divsf3+0x18>
 47c:	c1 d0       	rcall	.+386    	; 0x600 <__fp_pscA>
 47e:	30 f0       	brcs	.+12     	; 0x48c <__divsf3+0x18>
 480:	21 f4       	brne	.+8      	; 0x48a <__divsf3+0x16>
 482:	5f 3f       	cpi	r21, 0xFF	; 255
 484:	19 f0       	breq	.+6      	; 0x48c <__divsf3+0x18>
 486:	b3 c0       	rjmp	.+358    	; 0x5ee <__fp_inf>
 488:	51 11       	cpse	r21, r1
 48a:	fc c0       	rjmp	.+504    	; 0x684 <__fp_szero>
 48c:	b6 c0       	rjmp	.+364    	; 0x5fa <__fp_nan>

0000048e <__divsf3x>:
 48e:	d7 d0       	rcall	.+430    	; 0x63e <__fp_split3>
 490:	98 f3       	brcs	.-26     	; 0x478 <__divsf3+0x4>

00000492 <__divsf3_pse>:
 492:	99 23       	and	r25, r25
 494:	c9 f3       	breq	.-14     	; 0x488 <__divsf3+0x14>
 496:	55 23       	and	r21, r21
 498:	b1 f3       	breq	.-20     	; 0x486 <__divsf3+0x12>
 49a:	95 1b       	sub	r25, r21
 49c:	55 0b       	sbc	r21, r21
 49e:	bb 27       	eor	r27, r27
 4a0:	aa 27       	eor	r26, r26
 4a2:	62 17       	cp	r22, r18
 4a4:	73 07       	cpc	r23, r19
 4a6:	84 07       	cpc	r24, r20
 4a8:	38 f0       	brcs	.+14     	; 0x4b8 <__divsf3_pse+0x26>
 4aa:	9f 5f       	subi	r25, 0xFF	; 255
 4ac:	5f 4f       	sbci	r21, 0xFF	; 255
 4ae:	22 0f       	add	r18, r18
 4b0:	33 1f       	adc	r19, r19
 4b2:	44 1f       	adc	r20, r20
 4b4:	aa 1f       	adc	r26, r26
 4b6:	a9 f3       	breq	.-22     	; 0x4a2 <__divsf3_pse+0x10>
 4b8:	33 d0       	rcall	.+102    	; 0x520 <__divsf3_pse+0x8e>
 4ba:	0e 2e       	mov	r0, r30
 4bc:	3a f0       	brmi	.+14     	; 0x4cc <__divsf3_pse+0x3a>
 4be:	e0 e8       	ldi	r30, 0x80	; 128
 4c0:	30 d0       	rcall	.+96     	; 0x522 <__divsf3_pse+0x90>
 4c2:	91 50       	subi	r25, 0x01	; 1
 4c4:	50 40       	sbci	r21, 0x00	; 0
 4c6:	e6 95       	lsr	r30
 4c8:	00 1c       	adc	r0, r0
 4ca:	ca f7       	brpl	.-14     	; 0x4be <__divsf3_pse+0x2c>
 4cc:	29 d0       	rcall	.+82     	; 0x520 <__divsf3_pse+0x8e>
 4ce:	fe 2f       	mov	r31, r30
 4d0:	27 d0       	rcall	.+78     	; 0x520 <__divsf3_pse+0x8e>
 4d2:	66 0f       	add	r22, r22
 4d4:	77 1f       	adc	r23, r23
 4d6:	88 1f       	adc	r24, r24
 4d8:	bb 1f       	adc	r27, r27
 4da:	26 17       	cp	r18, r22
 4dc:	37 07       	cpc	r19, r23
 4de:	48 07       	cpc	r20, r24
 4e0:	ab 07       	cpc	r26, r27
 4e2:	b0 e8       	ldi	r27, 0x80	; 128
 4e4:	09 f0       	breq	.+2      	; 0x4e8 <__divsf3_pse+0x56>
 4e6:	bb 0b       	sbc	r27, r27
 4e8:	80 2d       	mov	r24, r0
 4ea:	bf 01       	movw	r22, r30
 4ec:	ff 27       	eor	r31, r31
 4ee:	93 58       	subi	r25, 0x83	; 131
 4f0:	5f 4f       	sbci	r21, 0xFF	; 255
 4f2:	2a f0       	brmi	.+10     	; 0x4fe <__divsf3_pse+0x6c>
 4f4:	9e 3f       	cpi	r25, 0xFE	; 254
 4f6:	51 05       	cpc	r21, r1
 4f8:	68 f0       	brcs	.+26     	; 0x514 <__divsf3_pse+0x82>
 4fa:	79 c0       	rjmp	.+242    	; 0x5ee <__fp_inf>
 4fc:	c3 c0       	rjmp	.+390    	; 0x684 <__fp_szero>
 4fe:	5f 3f       	cpi	r21, 0xFF	; 255
 500:	ec f3       	brlt	.-6      	; 0x4fc <__divsf3_pse+0x6a>
 502:	98 3e       	cpi	r25, 0xE8	; 232
 504:	dc f3       	brlt	.-10     	; 0x4fc <__divsf3_pse+0x6a>
 506:	86 95       	lsr	r24
 508:	77 95       	ror	r23
 50a:	67 95       	ror	r22
 50c:	b7 95       	ror	r27
 50e:	f7 95       	ror	r31
 510:	9f 5f       	subi	r25, 0xFF	; 255
 512:	c9 f7       	brne	.-14     	; 0x506 <__divsf3_pse+0x74>
 514:	88 0f       	add	r24, r24
 516:	91 1d       	adc	r25, r1
 518:	96 95       	lsr	r25
 51a:	87 95       	ror	r24
 51c:	97 f9       	bld	r25, 7
 51e:	08 95       	ret
 520:	e1 e0       	ldi	r30, 0x01	; 1
 522:	66 0f       	add	r22, r22
 524:	77 1f       	adc	r23, r23
 526:	88 1f       	adc	r24, r24
 528:	bb 1f       	adc	r27, r27
 52a:	62 17       	cp	r22, r18
 52c:	73 07       	cpc	r23, r19
 52e:	84 07       	cpc	r24, r20
 530:	ba 07       	cpc	r27, r26
 532:	20 f0       	brcs	.+8      	; 0x53c <__divsf3_pse+0xaa>
 534:	62 1b       	sub	r22, r18
 536:	73 0b       	sbc	r23, r19
 538:	84 0b       	sbc	r24, r20
 53a:	ba 0b       	sbc	r27, r26
 53c:	ee 1f       	adc	r30, r30
 53e:	88 f7       	brcc	.-30     	; 0x522 <__divsf3_pse+0x90>
 540:	e0 95       	com	r30
 542:	08 95       	ret

00000544 <__fixsfsi>:
 544:	04 d0       	rcall	.+8      	; 0x54e <__fixunssfsi>
 546:	68 94       	set
 548:	b1 11       	cpse	r27, r1
 54a:	9c c0       	rjmp	.+312    	; 0x684 <__fp_szero>
 54c:	08 95       	ret

0000054e <__fixunssfsi>:
 54e:	7f d0       	rcall	.+254    	; 0x64e <__fp_splitA>
 550:	88 f0       	brcs	.+34     	; 0x574 <__fixunssfsi+0x26>
 552:	9f 57       	subi	r25, 0x7F	; 127
 554:	90 f0       	brcs	.+36     	; 0x57a <__fixunssfsi+0x2c>
 556:	b9 2f       	mov	r27, r25
 558:	99 27       	eor	r25, r25
 55a:	b7 51       	subi	r27, 0x17	; 23
 55c:	a0 f0       	brcs	.+40     	; 0x586 <__fixunssfsi+0x38>
 55e:	d1 f0       	breq	.+52     	; 0x594 <__fixunssfsi+0x46>
 560:	66 0f       	add	r22, r22
 562:	77 1f       	adc	r23, r23
 564:	88 1f       	adc	r24, r24
 566:	99 1f       	adc	r25, r25
 568:	1a f0       	brmi	.+6      	; 0x570 <__fixunssfsi+0x22>
 56a:	ba 95       	dec	r27
 56c:	c9 f7       	brne	.-14     	; 0x560 <__fixunssfsi+0x12>
 56e:	12 c0       	rjmp	.+36     	; 0x594 <__fixunssfsi+0x46>
 570:	b1 30       	cpi	r27, 0x01	; 1
 572:	81 f0       	breq	.+32     	; 0x594 <__fixunssfsi+0x46>
 574:	86 d0       	rcall	.+268    	; 0x682 <__fp_zero>
 576:	b1 e0       	ldi	r27, 0x01	; 1
 578:	08 95       	ret
 57a:	83 c0       	rjmp	.+262    	; 0x682 <__fp_zero>
 57c:	67 2f       	mov	r22, r23
 57e:	78 2f       	mov	r23, r24
 580:	88 27       	eor	r24, r24
 582:	b8 5f       	subi	r27, 0xF8	; 248
 584:	39 f0       	breq	.+14     	; 0x594 <__fixunssfsi+0x46>
 586:	b9 3f       	cpi	r27, 0xF9	; 249
 588:	cc f3       	brlt	.-14     	; 0x57c <__fixunssfsi+0x2e>
 58a:	86 95       	lsr	r24
 58c:	77 95       	ror	r23
 58e:	67 95       	ror	r22
 590:	b3 95       	inc	r27
 592:	d9 f7       	brne	.-10     	; 0x58a <__fixunssfsi+0x3c>
 594:	3e f4       	brtc	.+14     	; 0x5a4 <__fixunssfsi+0x56>
 596:	90 95       	com	r25
 598:	80 95       	com	r24
 59a:	70 95       	com	r23
 59c:	61 95       	neg	r22
 59e:	7f 4f       	sbci	r23, 0xFF	; 255
 5a0:	8f 4f       	sbci	r24, 0xFF	; 255
 5a2:	9f 4f       	sbci	r25, 0xFF	; 255
 5a4:	08 95       	ret

000005a6 <__fp_cmp>:
 5a6:	99 0f       	add	r25, r25
 5a8:	00 08       	sbc	r0, r0
 5aa:	55 0f       	add	r21, r21
 5ac:	aa 0b       	sbc	r26, r26
 5ae:	e0 e8       	ldi	r30, 0x80	; 128
 5b0:	fe ef       	ldi	r31, 0xFE	; 254
 5b2:	16 16       	cp	r1, r22
 5b4:	17 06       	cpc	r1, r23
 5b6:	e8 07       	cpc	r30, r24
 5b8:	f9 07       	cpc	r31, r25
 5ba:	c0 f0       	brcs	.+48     	; 0x5ec <__fp_cmp+0x46>
 5bc:	12 16       	cp	r1, r18
 5be:	13 06       	cpc	r1, r19
 5c0:	e4 07       	cpc	r30, r20
 5c2:	f5 07       	cpc	r31, r21
 5c4:	98 f0       	brcs	.+38     	; 0x5ec <__fp_cmp+0x46>
 5c6:	62 1b       	sub	r22, r18
 5c8:	73 0b       	sbc	r23, r19
 5ca:	84 0b       	sbc	r24, r20
 5cc:	95 0b       	sbc	r25, r21
 5ce:	39 f4       	brne	.+14     	; 0x5de <__fp_cmp+0x38>
 5d0:	0a 26       	eor	r0, r26
 5d2:	61 f0       	breq	.+24     	; 0x5ec <__fp_cmp+0x46>
 5d4:	23 2b       	or	r18, r19
 5d6:	24 2b       	or	r18, r20
 5d8:	25 2b       	or	r18, r21
 5da:	21 f4       	brne	.+8      	; 0x5e4 <__fp_cmp+0x3e>
 5dc:	08 95       	ret
 5de:	0a 26       	eor	r0, r26
 5e0:	09 f4       	brne	.+2      	; 0x5e4 <__fp_cmp+0x3e>
 5e2:	a1 40       	sbci	r26, 0x01	; 1
 5e4:	a6 95       	lsr	r26
 5e6:	8f ef       	ldi	r24, 0xFF	; 255
 5e8:	81 1d       	adc	r24, r1
 5ea:	81 1d       	adc	r24, r1
 5ec:	08 95       	ret

000005ee <__fp_inf>:
 5ee:	97 f9       	bld	r25, 7
 5f0:	9f 67       	ori	r25, 0x7F	; 127
 5f2:	80 e8       	ldi	r24, 0x80	; 128
 5f4:	70 e0       	ldi	r23, 0x00	; 0
 5f6:	60 e0       	ldi	r22, 0x00	; 0
 5f8:	08 95       	ret

000005fa <__fp_nan>:
 5fa:	9f ef       	ldi	r25, 0xFF	; 255
 5fc:	80 ec       	ldi	r24, 0xC0	; 192
 5fe:	08 95       	ret

00000600 <__fp_pscA>:
 600:	00 24       	eor	r0, r0
 602:	0a 94       	dec	r0
 604:	16 16       	cp	r1, r22
 606:	17 06       	cpc	r1, r23
 608:	18 06       	cpc	r1, r24
 60a:	09 06       	cpc	r0, r25
 60c:	08 95       	ret

0000060e <__fp_pscB>:
 60e:	00 24       	eor	r0, r0
 610:	0a 94       	dec	r0
 612:	12 16       	cp	r1, r18
 614:	13 06       	cpc	r1, r19
 616:	14 06       	cpc	r1, r20
 618:	05 06       	cpc	r0, r21
 61a:	08 95       	ret

0000061c <__fp_round>:
 61c:	09 2e       	mov	r0, r25
 61e:	03 94       	inc	r0
 620:	00 0c       	add	r0, r0
 622:	11 f4       	brne	.+4      	; 0x628 <__fp_round+0xc>
 624:	88 23       	and	r24, r24
 626:	52 f0       	brmi	.+20     	; 0x63c <__fp_round+0x20>
 628:	bb 0f       	add	r27, r27
 62a:	40 f4       	brcc	.+16     	; 0x63c <__fp_round+0x20>
 62c:	bf 2b       	or	r27, r31
 62e:	11 f4       	brne	.+4      	; 0x634 <__fp_round+0x18>
 630:	60 ff       	sbrs	r22, 0
 632:	04 c0       	rjmp	.+8      	; 0x63c <__fp_round+0x20>
 634:	6f 5f       	subi	r22, 0xFF	; 255
 636:	7f 4f       	sbci	r23, 0xFF	; 255
 638:	8f 4f       	sbci	r24, 0xFF	; 255
 63a:	9f 4f       	sbci	r25, 0xFF	; 255
 63c:	08 95       	ret

0000063e <__fp_split3>:
 63e:	57 fd       	sbrc	r21, 7
 640:	90 58       	subi	r25, 0x80	; 128
 642:	44 0f       	add	r20, r20
 644:	55 1f       	adc	r21, r21
 646:	59 f0       	breq	.+22     	; 0x65e <__fp_splitA+0x10>
 648:	5f 3f       	cpi	r21, 0xFF	; 255
 64a:	71 f0       	breq	.+28     	; 0x668 <__fp_splitA+0x1a>
 64c:	47 95       	ror	r20

0000064e <__fp_splitA>:
 64e:	88 0f       	add	r24, r24
 650:	97 fb       	bst	r25, 7
 652:	99 1f       	adc	r25, r25
 654:	61 f0       	breq	.+24     	; 0x66e <__fp_splitA+0x20>
 656:	9f 3f       	cpi	r25, 0xFF	; 255
 658:	79 f0       	breq	.+30     	; 0x678 <__fp_splitA+0x2a>
 65a:	87 95       	ror	r24
 65c:	08 95       	ret
 65e:	12 16       	cp	r1, r18
 660:	13 06       	cpc	r1, r19
 662:	14 06       	cpc	r1, r20
 664:	55 1f       	adc	r21, r21
 666:	f2 cf       	rjmp	.-28     	; 0x64c <__fp_split3+0xe>
 668:	46 95       	lsr	r20
 66a:	f1 df       	rcall	.-30     	; 0x64e <__fp_splitA>
 66c:	08 c0       	rjmp	.+16     	; 0x67e <__fp_splitA+0x30>
 66e:	16 16       	cp	r1, r22
 670:	17 06       	cpc	r1, r23
 672:	18 06       	cpc	r1, r24
 674:	99 1f       	adc	r25, r25
 676:	f1 cf       	rjmp	.-30     	; 0x65a <__fp_splitA+0xc>
 678:	86 95       	lsr	r24
 67a:	71 05       	cpc	r23, r1
 67c:	61 05       	cpc	r22, r1
 67e:	08 94       	sec
 680:	08 95       	ret

00000682 <__fp_zero>:
 682:	e8 94       	clt

00000684 <__fp_szero>:
 684:	bb 27       	eor	r27, r27
 686:	66 27       	eor	r22, r22
 688:	77 27       	eor	r23, r23
 68a:	cb 01       	movw	r24, r22
 68c:	97 f9       	bld	r25, 7
 68e:	08 95       	ret

00000690 <__gesf2>:
 690:	8a df       	rcall	.-236    	; 0x5a6 <__fp_cmp>
 692:	08 f4       	brcc	.+2      	; 0x696 <__gesf2+0x6>
 694:	8f ef       	ldi	r24, 0xFF	; 255
 696:	08 95       	ret

00000698 <__mulsf3>:
 698:	0b d0       	rcall	.+22     	; 0x6b0 <__mulsf3x>
 69a:	c0 cf       	rjmp	.-128    	; 0x61c <__fp_round>
 69c:	b1 df       	rcall	.-158    	; 0x600 <__fp_pscA>
 69e:	28 f0       	brcs	.+10     	; 0x6aa <__mulsf3+0x12>
 6a0:	b6 df       	rcall	.-148    	; 0x60e <__fp_pscB>
 6a2:	18 f0       	brcs	.+6      	; 0x6aa <__mulsf3+0x12>
 6a4:	95 23       	and	r25, r21
 6a6:	09 f0       	breq	.+2      	; 0x6aa <__mulsf3+0x12>
 6a8:	a2 cf       	rjmp	.-188    	; 0x5ee <__fp_inf>
 6aa:	a7 cf       	rjmp	.-178    	; 0x5fa <__fp_nan>
 6ac:	11 24       	eor	r1, r1
 6ae:	ea cf       	rjmp	.-44     	; 0x684 <__fp_szero>

000006b0 <__mulsf3x>:
 6b0:	c6 df       	rcall	.-116    	; 0x63e <__fp_split3>
 6b2:	a0 f3       	brcs	.-24     	; 0x69c <__mulsf3+0x4>

000006b4 <__mulsf3_pse>:
 6b4:	95 9f       	mul	r25, r21
 6b6:	d1 f3       	breq	.-12     	; 0x6ac <__mulsf3+0x14>
 6b8:	95 0f       	add	r25, r21
 6ba:	50 e0       	ldi	r21, 0x00	; 0
 6bc:	55 1f       	adc	r21, r21
 6be:	62 9f       	mul	r22, r18
 6c0:	f0 01       	movw	r30, r0
 6c2:	72 9f       	mul	r23, r18
 6c4:	bb 27       	eor	r27, r27
 6c6:	f0 0d       	add	r31, r0
 6c8:	b1 1d       	adc	r27, r1
 6ca:	63 9f       	mul	r22, r19
 6cc:	aa 27       	eor	r26, r26
 6ce:	f0 0d       	add	r31, r0
 6d0:	b1 1d       	adc	r27, r1
 6d2:	aa 1f       	adc	r26, r26
 6d4:	64 9f       	mul	r22, r20
 6d6:	66 27       	eor	r22, r22
 6d8:	b0 0d       	add	r27, r0
 6da:	a1 1d       	adc	r26, r1
 6dc:	66 1f       	adc	r22, r22
 6de:	82 9f       	mul	r24, r18
 6e0:	22 27       	eor	r18, r18
 6e2:	b0 0d       	add	r27, r0
 6e4:	a1 1d       	adc	r26, r1
 6e6:	62 1f       	adc	r22, r18
 6e8:	73 9f       	mul	r23, r19
 6ea:	b0 0d       	add	r27, r0
 6ec:	a1 1d       	adc	r26, r1
 6ee:	62 1f       	adc	r22, r18
 6f0:	83 9f       	mul	r24, r19
 6f2:	a0 0d       	add	r26, r0
 6f4:	61 1d       	adc	r22, r1
 6f6:	22 1f       	adc	r18, r18
 6f8:	74 9f       	mul	r23, r20
 6fa:	33 27       	eor	r19, r19
 6fc:	a0 0d       	add	r26, r0
 6fe:	61 1d       	adc	r22, r1
 700:	23 1f       	adc	r18, r19
 702:	84 9f       	mul	r24, r20
 704:	60 0d       	add	r22, r0
 706:	21 1d       	adc	r18, r1
 708:	82 2f       	mov	r24, r18
 70a:	76 2f       	mov	r23, r22
 70c:	6a 2f       	mov	r22, r26
 70e:	11 24       	eor	r1, r1
 710:	9f 57       	subi	r25, 0x7F	; 127
 712:	50 40       	sbci	r21, 0x00	; 0
 714:	8a f0       	brmi	.+34     	; 0x738 <__mulsf3_pse+0x84>
 716:	e1 f0       	breq	.+56     	; 0x750 <__mulsf3_pse+0x9c>
 718:	88 23       	and	r24, r24
 71a:	4a f0       	brmi	.+18     	; 0x72e <__mulsf3_pse+0x7a>
 71c:	ee 0f       	add	r30, r30
 71e:	ff 1f       	adc	r31, r31
 720:	bb 1f       	adc	r27, r27
 722:	66 1f       	adc	r22, r22
 724:	77 1f       	adc	r23, r23
 726:	88 1f       	adc	r24, r24
 728:	91 50       	subi	r25, 0x01	; 1
 72a:	50 40       	sbci	r21, 0x00	; 0
 72c:	a9 f7       	brne	.-22     	; 0x718 <__mulsf3_pse+0x64>
 72e:	9e 3f       	cpi	r25, 0xFE	; 254
 730:	51 05       	cpc	r21, r1
 732:	70 f0       	brcs	.+28     	; 0x750 <__mulsf3_pse+0x9c>
 734:	5c cf       	rjmp	.-328    	; 0x5ee <__fp_inf>
 736:	a6 cf       	rjmp	.-180    	; 0x684 <__fp_szero>
 738:	5f 3f       	cpi	r21, 0xFF	; 255
 73a:	ec f3       	brlt	.-6      	; 0x736 <__mulsf3_pse+0x82>
 73c:	98 3e       	cpi	r25, 0xE8	; 232
 73e:	dc f3       	brlt	.-10     	; 0x736 <__mulsf3_pse+0x82>
 740:	86 95       	lsr	r24
 742:	77 95       	ror	r23
 744:	67 95       	ror	r22
 746:	b7 95       	ror	r27
 748:	f7 95       	ror	r31
 74a:	e7 95       	ror	r30
 74c:	9f 5f       	subi	r25, 0xFF	; 255
 74e:	c1 f7       	brne	.-16     	; 0x740 <__mulsf3_pse+0x8c>
 750:	fe 2b       	or	r31, r30
 752:	88 0f       	add	r24, r24
 754:	91 1d       	adc	r25, r1
 756:	96 95       	lsr	r25
 758:	87 95       	ror	r24
 75a:	97 f9       	bld	r25, 7
 75c:	08 95       	ret

0000075e <_exit>:
 75e:	f8 94       	cli

00000760 <__stop_program>:
 760:	ff cf       	rjmp	.-2      	; 0x760 <__stop_program>
